; Function Attrs: mustprogress nofree norecurse nounwind willreturn memory(readwrite, inaccessiblemem: none) uwtable
define void @_ZNK8QuantLib18LfmCovarianceProxy15volatilityModelEv(ptr dead_on_unwind noalias nocapture writable writeonly sret(%"class.boost::shared_ptr.6") align 8 %agg.result, ptr nocapture noundef nonnull readonly align 8 dereferenceable(56) %this) local_unnamed_addr #8 align 2 personality ptr @__gxx_personality_v0 {
entry:
  %volaModel_ = getelementptr inbounds nuw i8, ptr %this, i64 24
  %0 = load ptr, ptr %volaModel_, align 8, !tbaa !16
  store ptr %0, ptr %agg.result, align 8, !tbaa !16
  %pn.i = getelementptr inbounds nuw i8, ptr %agg.result, i64 8
  %pn3.i = getelementptr inbounds nuw i8, ptr %this, i64 32
  %1 = load ptr, ptr %pn3.i, align 8, !tbaa !18
  store ptr %1, ptr %pn.i, align 8, !tbaa !18
  %cmp.not.i.i = icmp eq ptr %1, null
  br i1 %cmp.not.i.i, label %_ZN5boost10shared_ptrIN8QuantLib17LmVolatilityModelEEC2ERKS3_.exit, label %if.then.i.i

if.then.i.i:                                      ; preds = %entry
  %use_count_.i.i.i = getelementptr inbounds nuw i8, ptr %1, i64 8
  %2 = atomicrmw add ptr %use_count_.i.i.i, i32 1 monotonic, align 4
  br label %_ZN5boost10shared_ptrIN8QuantLib17LmVolatilityModelEEC2ERKS3_.exit

_ZN5boost10shared_ptrIN8QuantLib17LmVolatilityModelEEC2ERKS3_.exit: ; preds = %entry, %if.then.i.i
  ret void
}